
practingRTOS.elf:     file format elf32-littlearm

Sections:
Idx Name          Size      VMA       LMA       File off  Algn
  0 .isr_vector   00000198  08000000  08000000  00001000  2**0
                  CONTENTS, ALLOC, LOAD, READONLY, DATA
  1 .text         000008b8  08000198  08000198  00001198  2**2
                  CONTENTS, ALLOC, LOAD, READONLY, CODE
  2 .rodata       00000000  08000a50  08000a50  00002008  2**0
                  CONTENTS, ALLOC, LOAD, DATA
  3 .ARM.extab    00000000  08000a50  08000a50  00002008  2**0
                  CONTENTS, READONLY
  4 .ARM          00000000  08000a50  08000a50  00002008  2**0
                  CONTENTS, READONLY
  5 .preinit_array 00000000  08000a50  08000a50  00002008  2**0
                  CONTENTS, ALLOC, LOAD, DATA
  6 .init_array   00000004  08000a50  08000a50  00001a50  2**2
                  CONTENTS, ALLOC, LOAD, READONLY, DATA
  7 .fini_array   00000004  08000a54  08000a54  00001a54  2**2
                  CONTENTS, ALLOC, LOAD, READONLY, DATA
  8 .data         00000008  20000000  08000a58  00002000  2**2
                  CONTENTS, ALLOC, LOAD, DATA
  9 .bss          00000684  20000008  08000a60  00002008  2**2
                  ALLOC
 10 ._user_heap_stack 00000604  2000068c  08000a60  0000268c  2**0
                  ALLOC
 11 .ARM.attributes 00000030  00000000  00000000  00002008  2**0
                  CONTENTS, READONLY
 12 .debug_info   000008af  00000000  00000000  00002038  2**0
                  CONTENTS, READONLY, DEBUGGING, OCTETS
 13 .debug_abbrev 000004b7  00000000  00000000  000028e7  2**0
                  CONTENTS, READONLY, DEBUGGING, OCTETS
 14 .debug_aranges 00000138  00000000  00000000  00002da0  2**3
                  CONTENTS, READONLY, DEBUGGING, OCTETS
 15 .debug_rnglists 000000da  00000000  00000000  00002ed8  2**0
                  CONTENTS, READONLY, DEBUGGING, OCTETS
 16 .debug_macro  00001d64  00000000  00000000  00002fb2  2**0
                  CONTENTS, READONLY, DEBUGGING, OCTETS
 17 .debug_line   00001525  00000000  00000000  00004d16  2**0
                  CONTENTS, READONLY, DEBUGGING, OCTETS
 18 .debug_str    0000786c  00000000  00000000  0000623b  2**0
                  CONTENTS, READONLY, DEBUGGING, OCTETS
 19 .comment      00000043  00000000  00000000  0000daa7  2**0
                  CONTENTS, READONLY
 20 .debug_frame  000003a0  00000000  00000000  0000daec  2**2
                  CONTENTS, READONLY, DEBUGGING, OCTETS
 21 .debug_line_str 0000004a  00000000  00000000  0000de8c  2**0
                  CONTENTS, READONLY, DEBUGGING, OCTETS

Disassembly of section .text:

08000198 <__do_global_dtors_aux>:
 8000198:	b510      	push	{r4, lr}
 800019a:	4c05      	ldr	r4, [pc, #20]	@ (80001b0 <__do_global_dtors_aux+0x18>)
 800019c:	7823      	ldrb	r3, [r4, #0]
 800019e:	b933      	cbnz	r3, 80001ae <__do_global_dtors_aux+0x16>
 80001a0:	4b04      	ldr	r3, [pc, #16]	@ (80001b4 <__do_global_dtors_aux+0x1c>)
 80001a2:	b113      	cbz	r3, 80001aa <__do_global_dtors_aux+0x12>
 80001a4:	4804      	ldr	r0, [pc, #16]	@ (80001b8 <__do_global_dtors_aux+0x20>)
 80001a6:	f3af 8000 	nop.w
 80001aa:	2301      	movs	r3, #1
 80001ac:	7023      	strb	r3, [r4, #0]
 80001ae:	bd10      	pop	{r4, pc}
 80001b0:	20000008 	.word	0x20000008
 80001b4:	00000000 	.word	0x00000000
 80001b8:	08000a38 	.word	0x08000a38

080001bc <frame_dummy>:
 80001bc:	b508      	push	{r3, lr}
 80001be:	4b03      	ldr	r3, [pc, #12]	@ (80001cc <frame_dummy+0x10>)
 80001c0:	b11b      	cbz	r3, 80001ca <frame_dummy+0xe>
 80001c2:	4903      	ldr	r1, [pc, #12]	@ (80001d0 <frame_dummy+0x14>)
 80001c4:	4803      	ldr	r0, [pc, #12]	@ (80001d4 <frame_dummy+0x18>)
 80001c6:	f3af 8000 	nop.w
 80001ca:	bd08      	pop	{r3, pc}
 80001cc:	00000000 	.word	0x00000000
 80001d0:	2000000c 	.word	0x2000000c
 80001d4:	08000a38 	.word	0x08000a38

080001d8 <configureClock>:
#include "config.h"

// Configuration functions
void configureClock()
{
 80001d8:	b480      	push	{r7}
 80001da:	af00      	add	r7, sp, #0
	// Clock Configuration - SYSCLK sourced from HSE - 8 Mhz
	RCC_CR |= (1 << 16); // HSEON -> 1
 80001dc:	4b15      	ldr	r3, [pc, #84]	@ (8000234 <configureClock+0x5c>)
 80001de:	681b      	ldr	r3, [r3, #0]
 80001e0:	4a14      	ldr	r2, [pc, #80]	@ (8000234 <configureClock+0x5c>)
 80001e2:	f443 3380 	orr.w	r3, r3, #65536	@ 0x10000
 80001e6:	6013      	str	r3, [r2, #0]
	while (!(RCC_CR & (1 << 17)))
 80001e8:	bf00      	nop
 80001ea:	4b12      	ldr	r3, [pc, #72]	@ (8000234 <configureClock+0x5c>)
 80001ec:	681b      	ldr	r3, [r3, #0]
 80001ee:	f403 3300 	and.w	r3, r3, #131072	@ 0x20000
 80001f2:	2b00      	cmp	r3, #0
 80001f4:	d0f9      	beq.n	80001ea <configureClock+0x12>
		;
	RCC_CFGR &= ~(1U << 0);
 80001f6:	4b10      	ldr	r3, [pc, #64]	@ (8000238 <configureClock+0x60>)
 80001f8:	681b      	ldr	r3, [r3, #0]
 80001fa:	4a0f      	ldr	r2, [pc, #60]	@ (8000238 <configureClock+0x60>)
 80001fc:	f023 0301 	bic.w	r3, r3, #1
 8000200:	6013      	str	r3, [r2, #0]
	RCC_CFGR &= ~(1U << 1);
 8000202:	4b0d      	ldr	r3, [pc, #52]	@ (8000238 <configureClock+0x60>)
 8000204:	681b      	ldr	r3, [r3, #0]
 8000206:	4a0c      	ldr	r2, [pc, #48]	@ (8000238 <configureClock+0x60>)
 8000208:	f023 0302 	bic.w	r3, r3, #2
 800020c:	6013      	str	r3, [r2, #0]
	RCC_CFGR |= (1 << 0);
 800020e:	4b0a      	ldr	r3, [pc, #40]	@ (8000238 <configureClock+0x60>)
 8000210:	681b      	ldr	r3, [r3, #0]
 8000212:	4a09      	ldr	r2, [pc, #36]	@ (8000238 <configureClock+0x60>)
 8000214:	f043 0301 	orr.w	r3, r3, #1
 8000218:	6013      	str	r3, [r2, #0]
	// 0x3 -> 0b11
	// 0x1 -> 0b01
	while ((RCC_CFGR & (0x3 << 2)) != (0x1 << 2))
 800021a:	bf00      	nop
 800021c:	4b06      	ldr	r3, [pc, #24]	@ (8000238 <configureClock+0x60>)
 800021e:	681b      	ldr	r3, [r3, #0]
 8000220:	f003 030c 	and.w	r3, r3, #12
 8000224:	2b04      	cmp	r3, #4
 8000226:	d1f9      	bne.n	800021c <configureClock+0x44>
		;
}
 8000228:	bf00      	nop
 800022a:	bf00      	nop
 800022c:	46bd      	mov	sp, r7
 800022e:	f85d 7b04 	ldr.w	r7, [sp], #4
 8000232:	4770      	bx	lr
 8000234:	40023800 	.word	0x40023800
 8000238:	40023808 	.word	0x40023808

0800023c <configureBlueLED>:

void configureBlueLED()
{
 800023c:	b480      	push	{r7}
 800023e:	af00      	add	r7, sp, #0
	// Enable the RCC Peripheral Clock for GPIOD
	RCC_AHB1ENR |= (1 << 3);
 8000240:	4b0e      	ldr	r3, [pc, #56]	@ (800027c <configureBlueLED+0x40>)
 8000242:	681b      	ldr	r3, [r3, #0]
 8000244:	4a0d      	ldr	r2, [pc, #52]	@ (800027c <configureBlueLED+0x40>)
 8000246:	f043 0308 	orr.w	r3, r3, #8
 800024a:	6013      	str	r3, [r2, #0]
	// Set the PD15 GPIO Pin (Blue LED) to Output
	GPIOD_MODER &= ~(1 << 31);
 800024c:	4b0c      	ldr	r3, [pc, #48]	@ (8000280 <configureBlueLED+0x44>)
 800024e:	681b      	ldr	r3, [r3, #0]
 8000250:	4a0b      	ldr	r2, [pc, #44]	@ (8000280 <configureBlueLED+0x44>)
 8000252:	f023 4300 	bic.w	r3, r3, #2147483648	@ 0x80000000
 8000256:	6013      	str	r3, [r2, #0]
	GPIOD_MODER &= ~(1U << 30);
 8000258:	4b09      	ldr	r3, [pc, #36]	@ (8000280 <configureBlueLED+0x44>)
 800025a:	681b      	ldr	r3, [r3, #0]
 800025c:	4a08      	ldr	r2, [pc, #32]	@ (8000280 <configureBlueLED+0x44>)
 800025e:	f023 4380 	bic.w	r3, r3, #1073741824	@ 0x40000000
 8000262:	6013      	str	r3, [r2, #0]
	GPIOD_MODER |= (1 << 30);
 8000264:	4b06      	ldr	r3, [pc, #24]	@ (8000280 <configureBlueLED+0x44>)
 8000266:	681b      	ldr	r3, [r3, #0]
 8000268:	4a05      	ldr	r2, [pc, #20]	@ (8000280 <configureBlueLED+0x44>)
 800026a:	f043 4380 	orr.w	r3, r3, #1073741824	@ 0x40000000
 800026e:	6013      	str	r3, [r2, #0]
}
 8000270:	bf00      	nop
 8000272:	46bd      	mov	sp, r7
 8000274:	f85d 7b04 	ldr.w	r7, [sp], #4
 8000278:	4770      	bx	lr
 800027a:	bf00      	nop
 800027c:	40023830 	.word	0x40023830
 8000280:	40020c00 	.word	0x40020c00

08000284 <configureGreenLED>:

void configureGreenLED()
{
 8000284:	b480      	push	{r7}
 8000286:	af00      	add	r7, sp, #0
	// Clock already enabled, since blue LED is also on GPIOD
	// Green LED: PD12
	GPIOD_MODER &= ~(1U << 24);
 8000288:	4b0b      	ldr	r3, [pc, #44]	@ (80002b8 <configureGreenLED+0x34>)
 800028a:	681b      	ldr	r3, [r3, #0]
 800028c:	4a0a      	ldr	r2, [pc, #40]	@ (80002b8 <configureGreenLED+0x34>)
 800028e:	f023 7380 	bic.w	r3, r3, #16777216	@ 0x1000000
 8000292:	6013      	str	r3, [r2, #0]
	GPIOD_MODER &= ~(1U << 25);
 8000294:	4b08      	ldr	r3, [pc, #32]	@ (80002b8 <configureGreenLED+0x34>)
 8000296:	681b      	ldr	r3, [r3, #0]
 8000298:	4a07      	ldr	r2, [pc, #28]	@ (80002b8 <configureGreenLED+0x34>)
 800029a:	f023 7300 	bic.w	r3, r3, #33554432	@ 0x2000000
 800029e:	6013      	str	r3, [r2, #0]
	GPIOD_MODER |= (1 << 24);
 80002a0:	4b05      	ldr	r3, [pc, #20]	@ (80002b8 <configureGreenLED+0x34>)
 80002a2:	681b      	ldr	r3, [r3, #0]
 80002a4:	4a04      	ldr	r2, [pc, #16]	@ (80002b8 <configureGreenLED+0x34>)
 80002a6:	f043 7380 	orr.w	r3, r3, #16777216	@ 0x1000000
 80002aa:	6013      	str	r3, [r2, #0]
}
 80002ac:	bf00      	nop
 80002ae:	46bd      	mov	sp, r7
 80002b0:	f85d 7b04 	ldr.w	r7, [sp], #4
 80002b4:	4770      	bx	lr
 80002b6:	bf00      	nop
 80002b8:	40020c00 	.word	0x40020c00

080002bc <configureOrangeLED>:

void configureOrangeLED()
{
 80002bc:	b480      	push	{r7}
 80002be:	af00      	add	r7, sp, #0
	// Orange LED: PD13
	GPIOD_MODER &= ~(1U << 26);
 80002c0:	4b0b      	ldr	r3, [pc, #44]	@ (80002f0 <configureOrangeLED+0x34>)
 80002c2:	681b      	ldr	r3, [r3, #0]
 80002c4:	4a0a      	ldr	r2, [pc, #40]	@ (80002f0 <configureOrangeLED+0x34>)
 80002c6:	f023 6380 	bic.w	r3, r3, #67108864	@ 0x4000000
 80002ca:	6013      	str	r3, [r2, #0]
	GPIOD_MODER &= ~(1U << 27);
 80002cc:	4b08      	ldr	r3, [pc, #32]	@ (80002f0 <configureOrangeLED+0x34>)
 80002ce:	681b      	ldr	r3, [r3, #0]
 80002d0:	4a07      	ldr	r2, [pc, #28]	@ (80002f0 <configureOrangeLED+0x34>)
 80002d2:	f023 6300 	bic.w	r3, r3, #134217728	@ 0x8000000
 80002d6:	6013      	str	r3, [r2, #0]
	GPIOD_MODER |= (1 << 26);
 80002d8:	4b05      	ldr	r3, [pc, #20]	@ (80002f0 <configureOrangeLED+0x34>)
 80002da:	681b      	ldr	r3, [r3, #0]
 80002dc:	4a04      	ldr	r2, [pc, #16]	@ (80002f0 <configureOrangeLED+0x34>)
 80002de:	f043 6380 	orr.w	r3, r3, #67108864	@ 0x4000000
 80002e2:	6013      	str	r3, [r2, #0]
}
 80002e4:	bf00      	nop
 80002e6:	46bd      	mov	sp, r7
 80002e8:	f85d 7b04 	ldr.w	r7, [sp], #4
 80002ec:	4770      	bx	lr
 80002ee:	bf00      	nop
 80002f0:	40020c00 	.word	0x40020c00

080002f4 <configureSystickInterrupts>:

void configureSystickInterrupts()
{
 80002f4:	b480      	push	{r7}
 80002f6:	af00      	add	r7, sp, #0
	SYSTICK_CSR &= ~(1U << 0);			// Disable timer
 80002f8:	4b11      	ldr	r3, [pc, #68]	@ (8000340 <configureSystickInterrupts+0x4c>)
 80002fa:	681b      	ldr	r3, [r3, #0]
 80002fc:	4a10      	ldr	r2, [pc, #64]	@ (8000340 <configureSystickInterrupts+0x4c>)
 80002fe:	f023 0301 	bic.w	r3, r3, #1
 8000302:	6013      	str	r3, [r2, #0]
	SYSTICK_CSR |= (1 << 2);			// Use SYSCLK
 8000304:	4b0e      	ldr	r3, [pc, #56]	@ (8000340 <configureSystickInterrupts+0x4c>)
 8000306:	681b      	ldr	r3, [r3, #0]
 8000308:	4a0d      	ldr	r2, [pc, #52]	@ (8000340 <configureSystickInterrupts+0x4c>)
 800030a:	f043 0304 	orr.w	r3, r3, #4
 800030e:	6013      	str	r3, [r2, #0]
	SYSTICK_CSR |= (1 << 1);			// Enable interrupt requests
 8000310:	4b0b      	ldr	r3, [pc, #44]	@ (8000340 <configureSystickInterrupts+0x4c>)
 8000312:	681b      	ldr	r3, [r3, #0]
 8000314:	4a0a      	ldr	r2, [pc, #40]	@ (8000340 <configureSystickInterrupts+0x4c>)
 8000316:	f043 0302 	orr.w	r3, r3, #2
 800031a:	6013      	str	r3, [r2, #0]
	SYSTICK_RELOAD = 7999;				// 1 ms per interval
 800031c:	4b09      	ldr	r3, [pc, #36]	@ (8000344 <configureSystickInterrupts+0x50>)
 800031e:	f641 723f 	movw	r2, #7999	@ 0x1f3f
 8000322:	601a      	str	r2, [r3, #0]
	SYSTICK_CURRENT = 0x00000000; // Reset current count
 8000324:	4b08      	ldr	r3, [pc, #32]	@ (8000348 <configureSystickInterrupts+0x54>)
 8000326:	2200      	movs	r2, #0
 8000328:	601a      	str	r2, [r3, #0]
	SYSTICK_CSR |= (1 << 0);			// Enable Timer
 800032a:	4b05      	ldr	r3, [pc, #20]	@ (8000340 <configureSystickInterrupts+0x4c>)
 800032c:	681b      	ldr	r3, [r3, #0]
 800032e:	4a04      	ldr	r2, [pc, #16]	@ (8000340 <configureSystickInterrupts+0x4c>)
 8000330:	f043 0301 	orr.w	r3, r3, #1
 8000334:	6013      	str	r3, [r2, #0]
}
 8000336:	bf00      	nop
 8000338:	46bd      	mov	sp, r7
 800033a:	f85d 7b04 	ldr.w	r7, [sp], #4
 800033e:	4770      	bx	lr
 8000340:	e000e010 	.word	0xe000e010
 8000344:	e000e014 	.word	0xe000e014
 8000348:	e000e018 	.word	0xe000e018

0800034c <configureInterruptPriorities>:

void configureInterruptPriorities()
{
 800034c:	b480      	push	{r7}
 800034e:	af00      	add	r7, sp, #0
	// PendSV to the lowest priority (240 because only top 4 bits are used)
	SHPR3 &= ~(0xFFU << PENDSV_PRIORITY_START_BIT);
 8000350:	4b0e      	ldr	r3, [pc, #56]	@ (800038c <configureInterruptPriorities+0x40>)
 8000352:	681b      	ldr	r3, [r3, #0]
 8000354:	4a0d      	ldr	r2, [pc, #52]	@ (800038c <configureInterruptPriorities+0x40>)
 8000356:	f423 037f 	bic.w	r3, r3, #16711680	@ 0xff0000
 800035a:	6013      	str	r3, [r2, #0]
	SHPR3 |= (0xF0U << PENDSV_PRIORITY_START_BIT);
 800035c:	4b0b      	ldr	r3, [pc, #44]	@ (800038c <configureInterruptPriorities+0x40>)
 800035e:	681b      	ldr	r3, [r3, #0]
 8000360:	4a0a      	ldr	r2, [pc, #40]	@ (800038c <configureInterruptPriorities+0x40>)
 8000362:	f443 0370 	orr.w	r3, r3, #15728640	@ 0xf00000
 8000366:	6013      	str	r3, [r2, #0]

	// SysTick to right above PendSV (224 because only top 4 bits are used)
	SHPR3 &= ~(0xFFU << SYSTICK_PRIORITY_START_BIT);
 8000368:	4b08      	ldr	r3, [pc, #32]	@ (800038c <configureInterruptPriorities+0x40>)
 800036a:	681b      	ldr	r3, [r3, #0]
 800036c:	4a07      	ldr	r2, [pc, #28]	@ (800038c <configureInterruptPriorities+0x40>)
 800036e:	f023 437f 	bic.w	r3, r3, #4278190080	@ 0xff000000
 8000372:	6013      	str	r3, [r2, #0]
	SHPR3 |= (0xE0U << SYSTICK_PRIORITY_START_BIT);
 8000374:	4b05      	ldr	r3, [pc, #20]	@ (800038c <configureInterruptPriorities+0x40>)
 8000376:	681b      	ldr	r3, [r3, #0]
 8000378:	4a04      	ldr	r2, [pc, #16]	@ (800038c <configureInterruptPriorities+0x40>)
 800037a:	f043 4360 	orr.w	r3, r3, #3758096384	@ 0xe0000000
 800037e:	6013      	str	r3, [r2, #0]
}
 8000380:	bf00      	nop
 8000382:	46bd      	mov	sp, r7
 8000384:	f85d 7b04 	ldr.w	r7, [sp], #4
 8000388:	4770      	bx	lr
 800038a:	bf00      	nop
 800038c:	e000ed20 	.word	0xe000ed20

08000390 <configureAll>:

void configureAll()
{
 8000390:	b580      	push	{r7, lr}
 8000392:	af00      	add	r7, sp, #0
	configureClock();
 8000394:	f7ff ff20 	bl	80001d8 <configureClock>
	configureSystickInterrupts();
 8000398:	f7ff ffac 	bl	80002f4 <configureSystickInterrupts>
	configureBlueLED();
 800039c:	f7ff ff4e 	bl	800023c <configureBlueLED>
	configureGreenLED();
 80003a0:	f7ff ff70 	bl	8000284 <configureGreenLED>
	configureOrangeLED();
 80003a4:	f7ff ff8a 	bl	80002bc <configureOrangeLED>
	configureInterruptPriorities();
 80003a8:	f7ff ffd0 	bl	800034c <configureInterruptPriorities>
}
 80003ac:	bf00      	nop
 80003ae:	bd80      	pop	{r7, pc}

080003b0 <task1_blueLED>:
TCB task2TCB;
TaskNode task1Node;
TaskNode task2Node;

void task1_blueLED()
{
 80003b0:	b580      	push	{r7, lr}
 80003b2:	af00      	add	r7, sp, #0
	for (;;)
	{
		GPIOD_ODR ^= (1 << 15);
 80003b4:	4b05      	ldr	r3, [pc, #20]	@ (80003cc <task1_blueLED+0x1c>)
 80003b6:	681b      	ldr	r3, [r3, #0]
 80003b8:	4a04      	ldr	r2, [pc, #16]	@ (80003cc <task1_blueLED+0x1c>)
 80003ba:	f483 4300 	eor.w	r3, r3, #32768	@ 0x8000
 80003be:	6013      	str	r3, [r2, #0]
		taskDelay(1000);
 80003c0:	f44f 707a 	mov.w	r0, #1000	@ 0x3e8
 80003c4:	f000 f97a 	bl	80006bc <taskDelay>
		GPIOD_ODR ^= (1 << 15);
 80003c8:	bf00      	nop
 80003ca:	e7f3      	b.n	80003b4 <task1_blueLED+0x4>
 80003cc:	40020c14 	.word	0x40020c14

080003d0 <task2_greenLED>:
	}
}

void task2_greenLED()
{
 80003d0:	b580      	push	{r7, lr}
 80003d2:	af00      	add	r7, sp, #0
	for (;;)
	{
		GPIOD_ODR ^= (1 << 12);
 80003d4:	4b05      	ldr	r3, [pc, #20]	@ (80003ec <task2_greenLED+0x1c>)
 80003d6:	681b      	ldr	r3, [r3, #0]
 80003d8:	4a04      	ldr	r2, [pc, #16]	@ (80003ec <task2_greenLED+0x1c>)
 80003da:	f483 5380 	eor.w	r3, r3, #4096	@ 0x1000
 80003de:	6013      	str	r3, [r2, #0]
		taskDelay(500);
 80003e0:	f44f 70fa 	mov.w	r0, #500	@ 0x1f4
 80003e4:	f000 f96a 	bl	80006bc <taskDelay>
		GPIOD_ODR ^= (1 << 12);
 80003e8:	bf00      	nop
 80003ea:	e7f3      	b.n	80003d4 <task2_greenLED+0x4>
 80003ec:	40020c14 	.word	0x40020c14

080003f0 <main>:
	}
}

int main(void)
{
 80003f0:	b580      	push	{r7, lr}
 80003f2:	b082      	sub	sp, #8
 80003f4:	af02      	add	r7, sp, #8
	configureAll();
 80003f6:	f7ff ffcb 	bl	8000390 <configureAll>

	createTask(task1Stack, &task1_blueLED, 1, &task1TCB, &task1Node);
 80003fa:	4b0a      	ldr	r3, [pc, #40]	@ (8000424 <main+0x34>)
 80003fc:	9300      	str	r3, [sp, #0]
 80003fe:	4b0a      	ldr	r3, [pc, #40]	@ (8000428 <main+0x38>)
 8000400:	2201      	movs	r2, #1
 8000402:	490a      	ldr	r1, [pc, #40]	@ (800042c <main+0x3c>)
 8000404:	480a      	ldr	r0, [pc, #40]	@ (8000430 <main+0x40>)
 8000406:	f000 f87f 	bl	8000508 <createTask>
	createTask(task2Stack, &task2_greenLED, 1, &task2TCB, &task2Node);
 800040a:	4b0a      	ldr	r3, [pc, #40]	@ (8000434 <main+0x44>)
 800040c:	9300      	str	r3, [sp, #0]
 800040e:	4b0a      	ldr	r3, [pc, #40]	@ (8000438 <main+0x48>)
 8000410:	2201      	movs	r2, #1
 8000412:	490a      	ldr	r1, [pc, #40]	@ (800043c <main+0x4c>)
 8000414:	480a      	ldr	r0, [pc, #40]	@ (8000440 <main+0x50>)
 8000416:	f000 f877 	bl	8000508 <createTask>

	startScheduler();
 800041a:	f000 f92b 	bl	8000674 <startScheduler>
	while (1)
 800041e:	bf00      	nop
 8000420:	e7fd      	b.n	800041e <main+0x2e>
 8000422:	bf00      	nop
 8000424:	20000444 	.word	0x20000444
 8000428:	20000424 	.word	0x20000424
 800042c:	080003b1 	.word	0x080003b1
 8000430:	20000024 	.word	0x20000024
 8000434:	2000044c 	.word	0x2000044c
 8000438:	20000434 	.word	0x20000434
 800043c:	080003d1 	.word	0x080003d1
 8000440:	20000224 	.word	0x20000224

08000444 <initTaskStackFrame>:
static TaskNode *prvIdleTask;
static TaskNode *createIdleTask();
static void idleTask();

uint32_t *initTaskStackFrame(uint32_t taskStack[], void (*taskFunc)(void))
{
 8000444:	b480      	push	{r7}
 8000446:	b083      	sub	sp, #12
 8000448:	af00      	add	r7, sp, #0
 800044a:	6078      	str	r0, [r7, #4]
 800044c:	6039      	str	r1, [r7, #0]
	taskStack[STACK_SIZE - 1] = 0x01000000;									// xPSR
 800044e:	687b      	ldr	r3, [r7, #4]
 8000450:	f503 73fe 	add.w	r3, r3, #508	@ 0x1fc
 8000454:	f04f 7280 	mov.w	r2, #16777216	@ 0x1000000
 8000458:	601a      	str	r2, [r3, #0]
	taskStack[STACK_SIZE - 2] = ((uint32_t)taskFunc) | 0x1; // PC
 800045a:	683a      	ldr	r2, [r7, #0]
 800045c:	687b      	ldr	r3, [r7, #4]
 800045e:	f503 73fc 	add.w	r3, r3, #504	@ 0x1f8
 8000462:	f042 0201 	orr.w	r2, r2, #1
 8000466:	601a      	str	r2, [r3, #0]
	taskStack[STACK_SIZE - 3] = 0xFFFFFFFD;									// LR
 8000468:	687b      	ldr	r3, [r7, #4]
 800046a:	f503 73fa 	add.w	r3, r3, #500	@ 0x1f4
 800046e:	f06f 0202 	mvn.w	r2, #2
 8000472:	601a      	str	r2, [r3, #0]
	taskStack[STACK_SIZE - 4] = 0x00000000;									// R12
 8000474:	687b      	ldr	r3, [r7, #4]
 8000476:	f503 73f8 	add.w	r3, r3, #496	@ 0x1f0
 800047a:	2200      	movs	r2, #0
 800047c:	601a      	str	r2, [r3, #0]
	taskStack[STACK_SIZE - 5] = 0x00000000;									// R3
 800047e:	687b      	ldr	r3, [r7, #4]
 8000480:	f503 73f6 	add.w	r3, r3, #492	@ 0x1ec
 8000484:	2200      	movs	r2, #0
 8000486:	601a      	str	r2, [r3, #0]
	taskStack[STACK_SIZE - 6] = 0x00000000;									// R2
 8000488:	687b      	ldr	r3, [r7, #4]
 800048a:	f503 73f4 	add.w	r3, r3, #488	@ 0x1e8
 800048e:	2200      	movs	r2, #0
 8000490:	601a      	str	r2, [r3, #0]
	taskStack[STACK_SIZE - 7] = 0x00000000;									// R1
 8000492:	687b      	ldr	r3, [r7, #4]
 8000494:	f503 73f2 	add.w	r3, r3, #484	@ 0x1e4
 8000498:	2200      	movs	r2, #0
 800049a:	601a      	str	r2, [r3, #0]
	taskStack[STACK_SIZE - 8] = 0x00000000;									// R0
 800049c:	687b      	ldr	r3, [r7, #4]
 800049e:	f503 73f0 	add.w	r3, r3, #480	@ 0x1e0
 80004a2:	2200      	movs	r2, #0
 80004a4:	601a      	str	r2, [r3, #0]
	taskStack[STACK_SIZE - 9] = 0x00000000;									// R11
 80004a6:	687b      	ldr	r3, [r7, #4]
 80004a8:	f503 73ee 	add.w	r3, r3, #476	@ 0x1dc
 80004ac:	2200      	movs	r2, #0
 80004ae:	601a      	str	r2, [r3, #0]
	taskStack[STACK_SIZE - 10] = 0x00000000;								// R10
 80004b0:	687b      	ldr	r3, [r7, #4]
 80004b2:	f503 73ec 	add.w	r3, r3, #472	@ 0x1d8
 80004b6:	2200      	movs	r2, #0
 80004b8:	601a      	str	r2, [r3, #0]
	taskStack[STACK_SIZE - 11] = 0x00000000;								// R9
 80004ba:	687b      	ldr	r3, [r7, #4]
 80004bc:	f503 73ea 	add.w	r3, r3, #468	@ 0x1d4
 80004c0:	2200      	movs	r2, #0
 80004c2:	601a      	str	r2, [r3, #0]
	taskStack[STACK_SIZE - 12] = 0x00000000;								// R8
 80004c4:	687b      	ldr	r3, [r7, #4]
 80004c6:	f503 73e8 	add.w	r3, r3, #464	@ 0x1d0
 80004ca:	2200      	movs	r2, #0
 80004cc:	601a      	str	r2, [r3, #0]
	taskStack[STACK_SIZE - 13] = 0x00000000;								// R7
 80004ce:	687b      	ldr	r3, [r7, #4]
 80004d0:	f503 73e6 	add.w	r3, r3, #460	@ 0x1cc
 80004d4:	2200      	movs	r2, #0
 80004d6:	601a      	str	r2, [r3, #0]
	taskStack[STACK_SIZE - 14] = 0x00000000;								// R6
 80004d8:	687b      	ldr	r3, [r7, #4]
 80004da:	f503 73e4 	add.w	r3, r3, #456	@ 0x1c8
 80004de:	2200      	movs	r2, #0
 80004e0:	601a      	str	r2, [r3, #0]
	taskStack[STACK_SIZE - 15] = 0x00000000;								// R5
 80004e2:	687b      	ldr	r3, [r7, #4]
 80004e4:	f503 73e2 	add.w	r3, r3, #452	@ 0x1c4
 80004e8:	2200      	movs	r2, #0
 80004ea:	601a      	str	r2, [r3, #0]
	taskStack[STACK_SIZE - 16] = 0x00000000;								// R4
 80004ec:	687b      	ldr	r3, [r7, #4]
 80004ee:	f503 73e0 	add.w	r3, r3, #448	@ 0x1c0
 80004f2:	2200      	movs	r2, #0
 80004f4:	601a      	str	r2, [r3, #0]

	return &taskStack[STACK_SIZE - 16];
 80004f6:	687b      	ldr	r3, [r7, #4]
 80004f8:	f503 73e0 	add.w	r3, r3, #448	@ 0x1c0
}
 80004fc:	4618      	mov	r0, r3
 80004fe:	370c      	adds	r7, #12
 8000500:	46bd      	mov	sp, r7
 8000502:	f85d 7b04 	ldr.w	r7, [sp], #4
 8000506:	4770      	bx	lr

08000508 <createTask>:

STATUS createTask(uint32_t taskStack[], void (*taskFunc)(void), unsigned int priority, TCB *userAllocatedTCB, TaskNode *userAllocatedTaskNode)
{
 8000508:	b580      	push	{r7, lr}
 800050a:	b084      	sub	sp, #16
 800050c:	af00      	add	r7, sp, #0
 800050e:	60f8      	str	r0, [r7, #12]
 8000510:	60b9      	str	r1, [r7, #8]
 8000512:	607a      	str	r2, [r7, #4]
 8000514:	603b      	str	r3, [r7, #0]
	userAllocatedTCB->sp = initTaskStackFrame(taskStack, taskFunc);
 8000516:	68b9      	ldr	r1, [r7, #8]
 8000518:	68f8      	ldr	r0, [r7, #12]
 800051a:	f7ff ff93 	bl	8000444 <initTaskStackFrame>
 800051e:	4602      	mov	r2, r0
 8000520:	683b      	ldr	r3, [r7, #0]
 8000522:	601a      	str	r2, [r3, #0]
	userAllocatedTCB->priority = priority;
 8000524:	683b      	ldr	r3, [r7, #0]
 8000526:	687a      	ldr	r2, [r7, #4]
 8000528:	605a      	str	r2, [r3, #4]
	userAllocatedTCB->id = prvCurTaskIDNum;
 800052a:	4b0b      	ldr	r3, [pc, #44]	@ (8000558 <createTask+0x50>)
 800052c:	681a      	ldr	r2, [r3, #0]
 800052e:	683b      	ldr	r3, [r7, #0]
 8000530:	609a      	str	r2, [r3, #8]
	prvCurTaskIDNum++;
 8000532:	4b09      	ldr	r3, [pc, #36]	@ (8000558 <createTask+0x50>)
 8000534:	681b      	ldr	r3, [r3, #0]
 8000536:	3301      	adds	r3, #1
 8000538:	4a07      	ldr	r2, [pc, #28]	@ (8000558 <createTask+0x50>)
 800053a:	6013      	str	r3, [r2, #0]

	// Insert at end of tasks linked list
	userAllocatedTaskNode->taskTCB = userAllocatedTCB;
 800053c:	69bb      	ldr	r3, [r7, #24]
 800053e:	683a      	ldr	r2, [r7, #0]
 8000540:	601a      	str	r2, [r3, #0]
	userAllocatedTaskNode->next = NULL;
 8000542:	69bb      	ldr	r3, [r7, #24]
 8000544:	2200      	movs	r2, #0
 8000546:	605a      	str	r2, [r3, #4]

	return prvAddTaskNodeToReadyList(userAllocatedTaskNode);
 8000548:	69b8      	ldr	r0, [r7, #24]
 800054a:	f000 f92d 	bl	80007a8 <prvAddTaskNodeToReadyList>
 800054e:	4603      	mov	r3, r0
}
 8000550:	4618      	mov	r0, r3
 8000552:	3710      	adds	r7, #16
 8000554:	46bd      	mov	sp, r7
 8000556:	bd80      	pop	{r7, pc}
 8000558:	20000464 	.word	0x20000464

0800055c <SysTick_Handler>:

void SysTick_Handler()
{
 800055c:	b580      	push	{r7, lr}
 800055e:	b082      	sub	sp, #8
 8000560:	af00      	add	r7, sp, #0
	msTicks++;
 8000562:	4b1f      	ldr	r3, [pc, #124]	@ (80005e0 <SysTick_Handler+0x84>)
 8000564:	681b      	ldr	r3, [r3, #0]
 8000566:	3301      	adds	r3, #1
 8000568:	4a1d      	ldr	r2, [pc, #116]	@ (80005e0 <SysTick_Handler+0x84>)
 800056a:	6013      	str	r3, [r2, #0]

	prvUnblockDelayedTasksReadyToUnblock();
 800056c:	f000 f998 	bl	80008a0 <prvUnblockDelayedTasksReadyToUnblock>

	if (curTask == NULL)
 8000570:	4b1c      	ldr	r3, [pc, #112]	@ (80005e4 <SysTick_Handler+0x88>)
 8000572:	681b      	ldr	r3, [r3, #0]
 8000574:	2b00      	cmp	r3, #0
 8000576:	d02f      	beq.n	80005d8 <SysTick_Handler+0x7c>
	{
		return;
	}

	uint32_t curExecutingPriority = curTask->taskTCB->priority;
 8000578:	4b1a      	ldr	r3, [pc, #104]	@ (80005e4 <SysTick_Handler+0x88>)
 800057a:	681b      	ldr	r3, [r3, #0]
 800057c:	681b      	ldr	r3, [r3, #0]
 800057e:	685b      	ldr	r3, [r3, #4]
 8000580:	607b      	str	r3, [r7, #4]

	TaskNode *highestPriorityPossibleExecute = prvGetHighestTaskReadyToExecute();
 8000582:	f000 f945 	bl	8000810 <prvGetHighestTaskReadyToExecute>
 8000586:	6038      	str	r0, [r7, #0]

	// Check if a higher priority task is ready to execute
	if (curExecutingPriority < highestPriorityPossibleExecute->taskTCB->priority)
 8000588:	683b      	ldr	r3, [r7, #0]
 800058a:	681b      	ldr	r3, [r3, #0]
 800058c:	685b      	ldr	r3, [r3, #4]
 800058e:	687a      	ldr	r2, [r7, #4]
 8000590:	429a      	cmp	r2, r3
 8000592:	d205      	bcs.n	80005a0 <SysTick_Handler+0x44>
	{
		prvNextTask = highestPriorityPossibleExecute;
 8000594:	4a14      	ldr	r2, [pc, #80]	@ (80005e8 <SysTick_Handler+0x8c>)
 8000596:	683b      	ldr	r3, [r7, #0]
 8000598:	6013      	str	r3, [r2, #0]
		setPendSVPending();
 800059a:	f000 f87f 	bl	800069c <setPendSVPending>
		return;
 800059e:	e01c      	b.n	80005da <SysTick_Handler+0x7e>
	}

	if (curTask->next == NULL)
 80005a0:	4b10      	ldr	r3, [pc, #64]	@ (80005e4 <SysTick_Handler+0x88>)
 80005a2:	681b      	ldr	r3, [r3, #0]
 80005a4:	685b      	ldr	r3, [r3, #4]
 80005a6:	2b00      	cmp	r3, #0
 80005a8:	d10e      	bne.n	80005c8 <SysTick_Handler+0x6c>
	{
		if (highestPriorityPossibleExecute->taskTCB->id != curTask->taskTCB->id)
 80005aa:	683b      	ldr	r3, [r7, #0]
 80005ac:	681b      	ldr	r3, [r3, #0]
 80005ae:	689a      	ldr	r2, [r3, #8]
 80005b0:	4b0c      	ldr	r3, [pc, #48]	@ (80005e4 <SysTick_Handler+0x88>)
 80005b2:	681b      	ldr	r3, [r3, #0]
 80005b4:	681b      	ldr	r3, [r3, #0]
 80005b6:	689b      	ldr	r3, [r3, #8]
 80005b8:	429a      	cmp	r2, r3
 80005ba:	d00e      	beq.n	80005da <SysTick_Handler+0x7e>
		{
			// There is another task of equal priority, time to switch.
			prvNextTask = highestPriorityPossibleExecute;
 80005bc:	4a0a      	ldr	r2, [pc, #40]	@ (80005e8 <SysTick_Handler+0x8c>)
 80005be:	683b      	ldr	r3, [r7, #0]
 80005c0:	6013      	str	r3, [r2, #0]
			setPendSVPending();
 80005c2:	f000 f86b 	bl	800069c <setPendSVPending>
			return;
 80005c6:	e008      	b.n	80005da <SysTick_Handler+0x7e>
		}
	}
	else
	{
		// There is another task of equal priority, time to switch.
		prvNextTask = curTask->next;
 80005c8:	4b06      	ldr	r3, [pc, #24]	@ (80005e4 <SysTick_Handler+0x88>)
 80005ca:	681b      	ldr	r3, [r3, #0]
 80005cc:	685b      	ldr	r3, [r3, #4]
 80005ce:	4a06      	ldr	r2, [pc, #24]	@ (80005e8 <SysTick_Handler+0x8c>)
 80005d0:	6013      	str	r3, [r2, #0]
		setPendSVPending();
 80005d2:	f000 f863 	bl	800069c <setPendSVPending>
		return;
 80005d6:	e000      	b.n	80005da <SysTick_Handler+0x7e>
		return;
 80005d8:	bf00      	nop
	}
}
 80005da:	3708      	adds	r7, #8
 80005dc:	46bd      	mov	sp, r7
 80005de:	bd80      	pop	{r7, pc}
 80005e0:	20000454 	.word	0x20000454
 80005e4:	20000458 	.word	0x20000458
 80005e8:	20000468 	.word	0x20000468

080005ec <PendSV_Handler>:

void PendSV_Handler()
{
 80005ec:	b480      	push	{r7}
 80005ee:	b083      	sub	sp, #12
 80005f0:	af00      	add	r7, sp, #0
	uint32_t spToSave;

	__asm volatile(
 80005f2:	f3ef 8009 	mrs	r0, PSP
 80005f6:	e920 0ff0 	stmdb	r0!, {r4, r5, r6, r7, r8, r9, sl, fp}
 80005fa:	4603      	mov	r3, r0
 80005fc:	607b      	str	r3, [r7, #4]
			"mrs r0, PSP\n"
			"stmdb r0!, {r4-r11}\n"
			"mov %[spToSave], r0\n"
			: [spToSave] "=r"(spToSave));

	curTask->taskTCB->sp = (uint32_t *)spToSave;
 80005fe:	4b0e      	ldr	r3, [pc, #56]	@ (8000638 <PendSV_Handler+0x4c>)
 8000600:	681b      	ldr	r3, [r3, #0]
 8000602:	681b      	ldr	r3, [r3, #0]
 8000604:	687a      	ldr	r2, [r7, #4]
 8000606:	601a      	str	r2, [r3, #0]

	uint32_t nextSP = (uint32_t) prvNextTask->taskTCB->sp;
 8000608:	4b0c      	ldr	r3, [pc, #48]	@ (800063c <PendSV_Handler+0x50>)
 800060a:	681b      	ldr	r3, [r3, #0]
 800060c:	681b      	ldr	r3, [r3, #0]
 800060e:	681b      	ldr	r3, [r3, #0]
 8000610:	603b      	str	r3, [r7, #0]

	curTask = prvNextTask;
 8000612:	4b0a      	ldr	r3, [pc, #40]	@ (800063c <PendSV_Handler+0x50>)
 8000614:	681b      	ldr	r3, [r3, #0]
 8000616:	4a08      	ldr	r2, [pc, #32]	@ (8000638 <PendSV_Handler+0x4c>)
 8000618:	6013      	str	r3, [r2, #0]

	__asm volatile(
 800061a:	683b      	ldr	r3, [r7, #0]
 800061c:	461a      	mov	r2, r3
 800061e:	e8b2 0ff0 	ldmia.w	r2!, {r4, r5, r6, r7, r8, r9, sl, fp}
 8000622:	f382 8809 	msr	PSP, r2
			"ldmia r2!, {r4-r11}\n"
			"msr PSP, r2\n"
			:
			: [nextSP] "r"(nextSP));

	__asm volatile(
 8000626:	f06f 0e02 	mvn.w	lr, #2
 800062a:	4770      	bx	lr
			"ldr lr, =0xFFFFFFFD\n"
			"bx lr\n");
}
 800062c:	bf00      	nop
 800062e:	370c      	adds	r7, #12
 8000630:	46bd      	mov	sp, r7
 8000632:	f85d 7b04 	ldr.w	r7, [sp], #4
 8000636:	4770      	bx	lr
 8000638:	20000458 	.word	0x20000458
 800063c:	20000468 	.word	0x20000468

08000640 <SVC_Handler>:

void SVC_Handler()
{
 8000640:	b480      	push	{r7}
 8000642:	b083      	sub	sp, #12
 8000644:	af00      	add	r7, sp, #0
	TCB *tcbToStart = curTask->taskTCB;
 8000646:	4b0a      	ldr	r3, [pc, #40]	@ (8000670 <SVC_Handler+0x30>)
 8000648:	681b      	ldr	r3, [r3, #0]
 800064a:	681b      	ldr	r3, [r3, #0]
 800064c:	607b      	str	r3, [r7, #4]
	uint32_t spToStart = (uint32_t) tcbToStart->sp;
 800064e:	687b      	ldr	r3, [r7, #4]
 8000650:	681b      	ldr	r3, [r3, #0]
 8000652:	603b      	str	r3, [r7, #0]

	__asm volatile(
 8000654:	6838      	ldr	r0, [r7, #0]
 8000656:	e8b0 0ff0 	ldmia.w	r0!, {r4, r5, r6, r7, r8, r9, sl, fp}
 800065a:	f380 8809 	msr	PSP, r0
 800065e:	f06f 0e02 	mvn.w	lr, #2
 8000662:	4770      	bx	lr
			"msr PSP, r0\n"
			"ldr lr, =0xFFFFFFFD\n"
			"bx lr\n"
			:
			: [sp] "m"(spToStart));
}
 8000664:	bf00      	nop
 8000666:	370c      	adds	r7, #12
 8000668:	46bd      	mov	sp, r7
 800066a:	f85d 7b04 	ldr.w	r7, [sp], #4
 800066e:	4770      	bx	lr
 8000670:	20000458 	.word	0x20000458

08000674 <startScheduler>:

void startScheduler()
{
 8000674:	b580      	push	{r7, lr}
 8000676:	af00      	add	r7, sp, #0
	prvIdleTask = createIdleTask();
 8000678:	f000 f95c 	bl	8000934 <createIdleTask>
 800067c:	4603      	mov	r3, r0
 800067e:	4a05      	ldr	r2, [pc, #20]	@ (8000694 <startScheduler+0x20>)
 8000680:	6013      	str	r3, [r2, #0]
	curTask = prvGetHighestTaskReadyToExecute();
 8000682:	f000 f8c5 	bl	8000810 <prvGetHighestTaskReadyToExecute>
 8000686:	4603      	mov	r3, r0
 8000688:	4a03      	ldr	r2, [pc, #12]	@ (8000698 <startScheduler+0x24>)
 800068a:	6013      	str	r3, [r2, #0]
	__asm volatile("svc #0");
 800068c:	df00      	svc	0
}
 800068e:	bf00      	nop
 8000690:	bd80      	pop	{r7, pc}
 8000692:	bf00      	nop
 8000694:	20000688 	.word	0x20000688
 8000698:	20000458 	.word	0x20000458

0800069c <setPendSVPending>:

void setPendSVPending()
{
 800069c:	b480      	push	{r7}
 800069e:	af00      	add	r7, sp, #0
	ICSR |= (1 << 28);
 80006a0:	4b05      	ldr	r3, [pc, #20]	@ (80006b8 <setPendSVPending+0x1c>)
 80006a2:	681b      	ldr	r3, [r3, #0]
 80006a4:	4a04      	ldr	r2, [pc, #16]	@ (80006b8 <setPendSVPending+0x1c>)
 80006a6:	f043 5380 	orr.w	r3, r3, #268435456	@ 0x10000000
 80006aa:	6013      	str	r3, [r2, #0]
}
 80006ac:	bf00      	nop
 80006ae:	46bd      	mov	sp, r7
 80006b0:	f85d 7b04 	ldr.w	r7, [sp], #4
 80006b4:	4770      	bx	lr
 80006b6:	bf00      	nop
 80006b8:	e000ed04 	.word	0xe000ed04

080006bc <taskDelay>:
{
	setPendSVPending();
}

void taskDelay(uint32_t ticksToDelay)
{
 80006bc:	b580      	push	{r7, lr}
 80006be:	b088      	sub	sp, #32
 80006c0:	af00      	add	r7, sp, #0
 80006c2:	6078      	str	r0, [r7, #4]
	uint32_t curTaskID = curTask->taskTCB->id;
 80006c4:	4b34      	ldr	r3, [pc, #208]	@ (8000798 <taskDelay+0xdc>)
 80006c6:	681b      	ldr	r3, [r3, #0]
 80006c8:	681b      	ldr	r3, [r3, #0]
 80006ca:	689b      	ldr	r3, [r3, #8]
 80006cc:	617b      	str	r3, [r7, #20]
	uint32_t curTaskPriority = curTask->taskTCB->priority;
 80006ce:	4b32      	ldr	r3, [pc, #200]	@ (8000798 <taskDelay+0xdc>)
 80006d0:	681b      	ldr	r3, [r3, #0]
 80006d2:	681b      	ldr	r3, [r3, #0]
 80006d4:	685b      	ldr	r3, [r3, #4]
 80006d6:	613b      	str	r3, [r7, #16]

	curTask->taskTCB->delayedUntil = msTicks + ticksToDelay;
 80006d8:	4b30      	ldr	r3, [pc, #192]	@ (800079c <taskDelay+0xe0>)
 80006da:	6819      	ldr	r1, [r3, #0]
 80006dc:	4b2e      	ldr	r3, [pc, #184]	@ (8000798 <taskDelay+0xdc>)
 80006de:	681b      	ldr	r3, [r3, #0]
 80006e0:	681b      	ldr	r3, [r3, #0]
 80006e2:	687a      	ldr	r2, [r7, #4]
 80006e4:	440a      	add	r2, r1
 80006e6:	60da      	str	r2, [r3, #12]

	// Remove the task from the ready list
	TaskNode *cur = readyTasksList[curTaskPriority];
 80006e8:	4a2d      	ldr	r2, [pc, #180]	@ (80007a0 <taskDelay+0xe4>)
 80006ea:	693b      	ldr	r3, [r7, #16]
 80006ec:	f852 3023 	ldr.w	r3, [r2, r3, lsl #2]
 80006f0:	61fb      	str	r3, [r7, #28]
	TaskNode *prev = NULL;
 80006f2:	2300      	movs	r3, #0
 80006f4:	61bb      	str	r3, [r7, #24]

	if (cur->next == NULL)
 80006f6:	69fb      	ldr	r3, [r7, #28]
 80006f8:	685b      	ldr	r3, [r3, #4]
 80006fa:	2b00      	cmp	r3, #0
 80006fc:	d111      	bne.n	8000722 <taskDelay+0x66>
	{
		// This is the only task for this priority, and it must be curTask
		readyTasksList[curTaskPriority] = NULL;
 80006fe:	4a28      	ldr	r2, [pc, #160]	@ (80007a0 <taskDelay+0xe4>)
 8000700:	693b      	ldr	r3, [r7, #16]
 8000702:	2100      	movs	r1, #0
 8000704:	f842 1023 	str.w	r1, [r2, r3, lsl #2]
		prvNextTask = prvGetHighestTaskReadyToExecute();
 8000708:	f000 f882 	bl	8000810 <prvGetHighestTaskReadyToExecute>
 800070c:	4603      	mov	r3, r0
 800070e:	4a25      	ldr	r2, [pc, #148]	@ (80007a4 <taskDelay+0xe8>)
 8000710:	6013      	str	r3, [r2, #0]
		prvAddTaskToBlockedList(curTask);
 8000712:	4b21      	ldr	r3, [pc, #132]	@ (8000798 <taskDelay+0xdc>)
 8000714:	681b      	ldr	r3, [r3, #0]
 8000716:	4618      	mov	r0, r3
 8000718:	f000 f89e 	bl	8000858 <prvAddTaskToBlockedList>
		setPendSVPending();
 800071c:	f7ff ffbe 	bl	800069c <setPendSVPending>
		return;
 8000720:	e036      	b.n	8000790 <taskDelay+0xd4>
	}

	// Check if curTask is the head of the priority
	if (cur->taskTCB->id == curTaskID)
 8000722:	69fb      	ldr	r3, [r7, #28]
 8000724:	681b      	ldr	r3, [r3, #0]
 8000726:	689b      	ldr	r3, [r3, #8]
 8000728:	697a      	ldr	r2, [r7, #20]
 800072a:	429a      	cmp	r2, r3
 800072c:	d118      	bne.n	8000760 <taskDelay+0xa4>
	{
		readyTasksList[curTaskPriority] = curTask->next;
 800072e:	4b1a      	ldr	r3, [pc, #104]	@ (8000798 <taskDelay+0xdc>)
 8000730:	681b      	ldr	r3, [r3, #0]
 8000732:	685a      	ldr	r2, [r3, #4]
 8000734:	491a      	ldr	r1, [pc, #104]	@ (80007a0 <taskDelay+0xe4>)
 8000736:	693b      	ldr	r3, [r7, #16]
 8000738:	f841 2023 	str.w	r2, [r1, r3, lsl #2]

		prvNextTask = prvGetHighestTaskReadyToExecute();
 800073c:	f000 f868 	bl	8000810 <prvGetHighestTaskReadyToExecute>
 8000740:	4603      	mov	r3, r0
 8000742:	4a18      	ldr	r2, [pc, #96]	@ (80007a4 <taskDelay+0xe8>)
 8000744:	6013      	str	r3, [r2, #0]
		prvAddTaskToBlockedList(curTask);
 8000746:	4b14      	ldr	r3, [pc, #80]	@ (8000798 <taskDelay+0xdc>)
 8000748:	681b      	ldr	r3, [r3, #0]
 800074a:	4618      	mov	r0, r3
 800074c:	f000 f884 	bl	8000858 <prvAddTaskToBlockedList>
		setPendSVPending();
 8000750:	f7ff ffa4 	bl	800069c <setPendSVPending>
		return;
 8000754:	e01c      	b.n	8000790 <taskDelay+0xd4>
	}

	// There is more than one task for the current priority
	while (cur->taskTCB->id != curTaskID)
	{
		prev = cur;
 8000756:	69fb      	ldr	r3, [r7, #28]
 8000758:	61bb      	str	r3, [r7, #24]
		cur = cur->next;
 800075a:	69fb      	ldr	r3, [r7, #28]
 800075c:	685b      	ldr	r3, [r3, #4]
 800075e:	61fb      	str	r3, [r7, #28]
	while (cur->taskTCB->id != curTaskID)
 8000760:	69fb      	ldr	r3, [r7, #28]
 8000762:	681b      	ldr	r3, [r3, #0]
 8000764:	689b      	ldr	r3, [r3, #8]
 8000766:	697a      	ldr	r2, [r7, #20]
 8000768:	429a      	cmp	r2, r3
 800076a:	d1f4      	bne.n	8000756 <taskDelay+0x9a>
	}

	TaskNode *afterCur = cur->next;
 800076c:	69fb      	ldr	r3, [r7, #28]
 800076e:	685b      	ldr	r3, [r3, #4]
 8000770:	60fb      	str	r3, [r7, #12]
	prev->next = afterCur;
 8000772:	69bb      	ldr	r3, [r7, #24]
 8000774:	68fa      	ldr	r2, [r7, #12]
 8000776:	605a      	str	r2, [r3, #4]

	prvNextTask = prvGetHighestTaskReadyToExecute();
 8000778:	f000 f84a 	bl	8000810 <prvGetHighestTaskReadyToExecute>
 800077c:	4603      	mov	r3, r0
 800077e:	4a09      	ldr	r2, [pc, #36]	@ (80007a4 <taskDelay+0xe8>)
 8000780:	6013      	str	r3, [r2, #0]
	prvAddTaskToBlockedList(curTask);
 8000782:	4b05      	ldr	r3, [pc, #20]	@ (8000798 <taskDelay+0xdc>)
 8000784:	681b      	ldr	r3, [r3, #0]
 8000786:	4618      	mov	r0, r3
 8000788:	f000 f866 	bl	8000858 <prvAddTaskToBlockedList>
	setPendSVPending();
 800078c:	f7ff ff86 	bl	800069c <setPendSVPending>
}
 8000790:	3720      	adds	r7, #32
 8000792:	46bd      	mov	sp, r7
 8000794:	bd80      	pop	{r7, pc}
 8000796:	bf00      	nop
 8000798:	20000458 	.word	0x20000458
 800079c:	20000454 	.word	0x20000454
 80007a0:	2000045c 	.word	0x2000045c
 80007a4:	20000468 	.word	0x20000468

080007a8 <prvAddTaskNodeToReadyList>:

static STATUS prvAddTaskNodeToReadyList(TaskNode *task)
{
 80007a8:	b480      	push	{r7}
 80007aa:	b085      	sub	sp, #20
 80007ac:	af00      	add	r7, sp, #0
 80007ae:	6078      	str	r0, [r7, #4]
	// Safeguards
	if (task->taskTCB->priority >= MAX_PRIORITIES)
 80007b0:	687b      	ldr	r3, [r7, #4]
 80007b2:	681b      	ldr	r3, [r3, #0]
 80007b4:	685b      	ldr	r3, [r3, #4]
 80007b6:	2b01      	cmp	r3, #1
 80007b8:	d901      	bls.n	80007be <prvAddTaskNodeToReadyList+0x16>
	{
		return STATUS_FAILURE;
 80007ba:	2301      	movs	r3, #1
 80007bc:	e020      	b.n	8000800 <prvAddTaskNodeToReadyList+0x58>
	}

	task->next = NULL;
 80007be:	687b      	ldr	r3, [r7, #4]
 80007c0:	2200      	movs	r2, #0
 80007c2:	605a      	str	r2, [r3, #4]

	uint32_t curPriority = task->taskTCB->priority;
 80007c4:	687b      	ldr	r3, [r7, #4]
 80007c6:	681b      	ldr	r3, [r3, #0]
 80007c8:	685b      	ldr	r3, [r3, #4]
 80007ca:	60bb      	str	r3, [r7, #8]

	TaskNode *curHead = readyTasksList[curPriority];
 80007cc:	4a0f      	ldr	r2, [pc, #60]	@ (800080c <prvAddTaskNodeToReadyList+0x64>)
 80007ce:	68bb      	ldr	r3, [r7, #8]
 80007d0:	f852 3023 	ldr.w	r3, [r2, r3, lsl #2]
 80007d4:	60fb      	str	r3, [r7, #12]

	if (curHead == NULL)
 80007d6:	68fb      	ldr	r3, [r7, #12]
 80007d8:	2b00      	cmp	r3, #0
 80007da:	d109      	bne.n	80007f0 <prvAddTaskNodeToReadyList+0x48>
	{
		// This is the first node for this priority
		readyTasksList[curPriority] = task;
 80007dc:	490b      	ldr	r1, [pc, #44]	@ (800080c <prvAddTaskNodeToReadyList+0x64>)
 80007de:	68bb      	ldr	r3, [r7, #8]
 80007e0:	687a      	ldr	r2, [r7, #4]
 80007e2:	f841 2023 	str.w	r2, [r1, r3, lsl #2]
		return STATUS_SUCCESS;
 80007e6:	2300      	movs	r3, #0
 80007e8:	e00a      	b.n	8000800 <prvAddTaskNodeToReadyList+0x58>
	}

	// Get to the end of the LL
	while (curHead->next != NULL)
	{
		curHead = curHead->next;
 80007ea:	68fb      	ldr	r3, [r7, #12]
 80007ec:	685b      	ldr	r3, [r3, #4]
 80007ee:	60fb      	str	r3, [r7, #12]
	while (curHead->next != NULL)
 80007f0:	68fb      	ldr	r3, [r7, #12]
 80007f2:	685b      	ldr	r3, [r3, #4]
 80007f4:	2b00      	cmp	r3, #0
 80007f6:	d1f8      	bne.n	80007ea <prvAddTaskNodeToReadyList+0x42>
	}

	curHead->next = task;
 80007f8:	68fb      	ldr	r3, [r7, #12]
 80007fa:	687a      	ldr	r2, [r7, #4]
 80007fc:	605a      	str	r2, [r3, #4]
	return STATUS_SUCCESS;
 80007fe:	2300      	movs	r3, #0
}
 8000800:	4618      	mov	r0, r3
 8000802:	3714      	adds	r7, #20
 8000804:	46bd      	mov	sp, r7
 8000806:	f85d 7b04 	ldr.w	r7, [sp], #4
 800080a:	4770      	bx	lr
 800080c:	2000045c 	.word	0x2000045c

08000810 <prvGetHighestTaskReadyToExecute>:

static TaskNode *prvGetHighestTaskReadyToExecute()
{
 8000810:	b480      	push	{r7}
 8000812:	b083      	sub	sp, #12
 8000814:	af00      	add	r7, sp, #0
	int idx = MAX_PRIORITIES - 1; // Highest Priority Possible
 8000816:	2301      	movs	r3, #1
 8000818:	607b      	str	r3, [r7, #4]

	while (idx >= 0)
 800081a:	e00d      	b.n	8000838 <prvGetHighestTaskReadyToExecute+0x28>
	{
		if (readyTasksList[idx] != NULL)
 800081c:	4a0c      	ldr	r2, [pc, #48]	@ (8000850 <prvGetHighestTaskReadyToExecute+0x40>)
 800081e:	687b      	ldr	r3, [r7, #4]
 8000820:	f852 3023 	ldr.w	r3, [r2, r3, lsl #2]
 8000824:	2b00      	cmp	r3, #0
 8000826:	d004      	beq.n	8000832 <prvGetHighestTaskReadyToExecute+0x22>
		{
			return readyTasksList[idx];
 8000828:	4a09      	ldr	r2, [pc, #36]	@ (8000850 <prvGetHighestTaskReadyToExecute+0x40>)
 800082a:	687b      	ldr	r3, [r7, #4]
 800082c:	f852 3023 	ldr.w	r3, [r2, r3, lsl #2]
 8000830:	e007      	b.n	8000842 <prvGetHighestTaskReadyToExecute+0x32>
		}
		--idx;
 8000832:	687b      	ldr	r3, [r7, #4]
 8000834:	3b01      	subs	r3, #1
 8000836:	607b      	str	r3, [r7, #4]
	while (idx >= 0)
 8000838:	687b      	ldr	r3, [r7, #4]
 800083a:	2b00      	cmp	r3, #0
 800083c:	daee      	bge.n	800081c <prvGetHighestTaskReadyToExecute+0xc>
	}

	// If no tasks are ready to run, return the idle task
	return prvIdleTask;
 800083e:	4b05      	ldr	r3, [pc, #20]	@ (8000854 <prvGetHighestTaskReadyToExecute+0x44>)
 8000840:	681b      	ldr	r3, [r3, #0]
}
 8000842:	4618      	mov	r0, r3
 8000844:	370c      	adds	r7, #12
 8000846:	46bd      	mov	sp, r7
 8000848:	f85d 7b04 	ldr.w	r7, [sp], #4
 800084c:	4770      	bx	lr
 800084e:	bf00      	nop
 8000850:	2000045c 	.word	0x2000045c
 8000854:	20000688 	.word	0x20000688

08000858 <prvAddTaskToBlockedList>:

// Maybe make this return a STATUS?
static void prvAddTaskToBlockedList(TaskNode *task)
{
 8000858:	b480      	push	{r7}
 800085a:	b085      	sub	sp, #20
 800085c:	af00      	add	r7, sp, #0
 800085e:	6078      	str	r0, [r7, #4]
	task->next = NULL;
 8000860:	687b      	ldr	r3, [r7, #4]
 8000862:	2200      	movs	r2, #0
 8000864:	605a      	str	r2, [r3, #4]

	if (prvBlockedTasks == NULL)
 8000866:	4b0d      	ldr	r3, [pc, #52]	@ (800089c <prvAddTaskToBlockedList+0x44>)
 8000868:	681b      	ldr	r3, [r3, #0]
 800086a:	2b00      	cmp	r3, #0
 800086c:	d103      	bne.n	8000876 <prvAddTaskToBlockedList+0x1e>
	{
		prvBlockedTasks = task;
 800086e:	4a0b      	ldr	r2, [pc, #44]	@ (800089c <prvAddTaskToBlockedList+0x44>)
 8000870:	687b      	ldr	r3, [r7, #4]
 8000872:	6013      	str	r3, [r2, #0]
		return;
 8000874:	e00d      	b.n	8000892 <prvAddTaskToBlockedList+0x3a>
	}

	TaskNode *cur = prvBlockedTasks;
 8000876:	4b09      	ldr	r3, [pc, #36]	@ (800089c <prvAddTaskToBlockedList+0x44>)
 8000878:	681b      	ldr	r3, [r3, #0]
 800087a:	60fb      	str	r3, [r7, #12]

	while (cur->next != NULL)
 800087c:	e002      	b.n	8000884 <prvAddTaskToBlockedList+0x2c>
	{
		cur = cur->next;
 800087e:	68fb      	ldr	r3, [r7, #12]
 8000880:	685b      	ldr	r3, [r3, #4]
 8000882:	60fb      	str	r3, [r7, #12]
	while (cur->next != NULL)
 8000884:	68fb      	ldr	r3, [r7, #12]
 8000886:	685b      	ldr	r3, [r3, #4]
 8000888:	2b00      	cmp	r3, #0
 800088a:	d1f8      	bne.n	800087e <prvAddTaskToBlockedList+0x26>
	}

	cur->next = task;
 800088c:	68fb      	ldr	r3, [r7, #12]
 800088e:	687a      	ldr	r2, [r7, #4]
 8000890:	605a      	str	r2, [r3, #4]
}
 8000892:	3714      	adds	r7, #20
 8000894:	46bd      	mov	sp, r7
 8000896:	f85d 7b04 	ldr.w	r7, [sp], #4
 800089a:	4770      	bx	lr
 800089c:	2000046c 	.word	0x2000046c

080008a0 <prvUnblockDelayedTasksReadyToUnblock>:

static void prvUnblockDelayedTasksReadyToUnblock()
{
 80008a0:	b580      	push	{r7, lr}
 80008a2:	b084      	sub	sp, #16
 80008a4:	af00      	add	r7, sp, #0
	TaskNode *cur = prvBlockedTasks;
 80008a6:	4b21      	ldr	r3, [pc, #132]	@ (800092c <prvUnblockDelayedTasksReadyToUnblock+0x8c>)
 80008a8:	681b      	ldr	r3, [r3, #0]
 80008aa:	60fb      	str	r3, [r7, #12]
	TaskNode *prev = NULL;
 80008ac:	2300      	movs	r3, #0
 80008ae:	60bb      	str	r3, [r7, #8]

	if (cur == NULL)
 80008b0:	68fb      	ldr	r3, [r7, #12]
 80008b2:	2b00      	cmp	r3, #0
 80008b4:	d036      	beq.n	8000924 <prvUnblockDelayedTasksReadyToUnblock+0x84>
	{
		// Nothing blocked, nothing to do
		return;
	}

	if (cur->next == NULL)
 80008b6:	68fb      	ldr	r3, [r7, #12]
 80008b8:	685b      	ldr	r3, [r3, #4]
 80008ba:	2b00      	cmp	r3, #0
 80008bc:	d12e      	bne.n	800091c <prvUnblockDelayedTasksReadyToUnblock+0x7c>
	{
		// This is the only node
		if (cur->taskTCB->delayedUntil == msTicks)
 80008be:	68fb      	ldr	r3, [r7, #12]
 80008c0:	681b      	ldr	r3, [r3, #0]
 80008c2:	68da      	ldr	r2, [r3, #12]
 80008c4:	4b1a      	ldr	r3, [pc, #104]	@ (8000930 <prvUnblockDelayedTasksReadyToUnblock+0x90>)
 80008c6:	681b      	ldr	r3, [r3, #0]
 80008c8:	429a      	cmp	r2, r3
 80008ca:	d127      	bne.n	800091c <prvUnblockDelayedTasksReadyToUnblock+0x7c>
		{
			// Remove the task
			prvBlockedTasks = NULL;
 80008cc:	4b17      	ldr	r3, [pc, #92]	@ (800092c <prvUnblockDelayedTasksReadyToUnblock+0x8c>)
 80008ce:	2200      	movs	r2, #0
 80008d0:	601a      	str	r2, [r3, #0]
			prvAddTaskNodeToReadyList(cur);
 80008d2:	68f8      	ldr	r0, [r7, #12]
 80008d4:	f7ff ff68 	bl	80007a8 <prvAddTaskNodeToReadyList>
			return;
 80008d8:	e025      	b.n	8000926 <prvUnblockDelayedTasksReadyToUnblock+0x86>
		}
	}

	while (cur != NULL)
	{
		TaskNode *tempNext = cur->next;
 80008da:	68fb      	ldr	r3, [r7, #12]
 80008dc:	685b      	ldr	r3, [r3, #4]
 80008de:	607b      	str	r3, [r7, #4]
		if (cur->taskTCB->delayedUntil == msTicks)
 80008e0:	68fb      	ldr	r3, [r7, #12]
 80008e2:	681b      	ldr	r3, [r3, #0]
 80008e4:	68da      	ldr	r2, [r3, #12]
 80008e6:	4b12      	ldr	r3, [pc, #72]	@ (8000930 <prvUnblockDelayedTasksReadyToUnblock+0x90>)
 80008e8:	681b      	ldr	r3, [r3, #0]
 80008ea:	429a      	cmp	r2, r3
 80008ec:	d112      	bne.n	8000914 <prvUnblockDelayedTasksReadyToUnblock+0x74>
		{
			// Add it to the ready list and remove from the blocked list
			if (prev == NULL)
 80008ee:	68bb      	ldr	r3, [r7, #8]
 80008f0:	2b00      	cmp	r3, #0
 80008f2:	d107      	bne.n	8000904 <prvUnblockDelayedTasksReadyToUnblock+0x64>
			{
				prvBlockedTasks = cur->next;
 80008f4:	68fb      	ldr	r3, [r7, #12]
 80008f6:	685b      	ldr	r3, [r3, #4]
 80008f8:	4a0c      	ldr	r2, [pc, #48]	@ (800092c <prvUnblockDelayedTasksReadyToUnblock+0x8c>)
 80008fa:	6013      	str	r3, [r2, #0]
				prvAddTaskNodeToReadyList(cur);
 80008fc:	68f8      	ldr	r0, [r7, #12]
 80008fe:	f7ff ff53 	bl	80007a8 <prvAddTaskNodeToReadyList>
 8000902:	e009      	b.n	8000918 <prvUnblockDelayedTasksReadyToUnblock+0x78>
			}
			else
			{
				prev->next = cur->next;
 8000904:	68fb      	ldr	r3, [r7, #12]
 8000906:	685a      	ldr	r2, [r3, #4]
 8000908:	68bb      	ldr	r3, [r7, #8]
 800090a:	605a      	str	r2, [r3, #4]
				prvAddTaskNodeToReadyList(cur);
 800090c:	68f8      	ldr	r0, [r7, #12]
 800090e:	f7ff ff4b 	bl	80007a8 <prvAddTaskNodeToReadyList>
 8000912:	e001      	b.n	8000918 <prvUnblockDelayedTasksReadyToUnblock+0x78>
			}
		}
		else
		{
			prev = cur;
 8000914:	68fb      	ldr	r3, [r7, #12]
 8000916:	60bb      	str	r3, [r7, #8]
		}
		cur = tempNext;
 8000918:	687b      	ldr	r3, [r7, #4]
 800091a:	60fb      	str	r3, [r7, #12]
	while (cur != NULL)
 800091c:	68fb      	ldr	r3, [r7, #12]
 800091e:	2b00      	cmp	r3, #0
 8000920:	d1db      	bne.n	80008da <prvUnblockDelayedTasksReadyToUnblock+0x3a>
 8000922:	e000      	b.n	8000926 <prvUnblockDelayedTasksReadyToUnblock+0x86>
		return;
 8000924:	bf00      	nop
	}
}
 8000926:	3710      	adds	r7, #16
 8000928:	46bd      	mov	sp, r7
 800092a:	bd80      	pop	{r7, pc}
 800092c:	2000046c 	.word	0x2000046c
 8000930:	20000454 	.word	0x20000454

08000934 <createIdleTask>:

static TaskNode *createIdleTask()
{
 8000934:	b598      	push	{r3, r4, r7, lr}
 8000936:	af00      	add	r7, sp, #0
	idleTaskTCBptr->sp = initTaskStackFrame(idleTaskStack, &idleTask);
 8000938:	4b11      	ldr	r3, [pc, #68]	@ (8000980 <createIdleTask+0x4c>)
 800093a:	681c      	ldr	r4, [r3, #0]
 800093c:	4911      	ldr	r1, [pc, #68]	@ (8000984 <createIdleTask+0x50>)
 800093e:	4812      	ldr	r0, [pc, #72]	@ (8000988 <createIdleTask+0x54>)
 8000940:	f7ff fd80 	bl	8000444 <initTaskStackFrame>
 8000944:	4603      	mov	r3, r0
 8000946:	6023      	str	r3, [r4, #0]
	idleTaskTCBptr->priority = 0;
 8000948:	4b0d      	ldr	r3, [pc, #52]	@ (8000980 <createIdleTask+0x4c>)
 800094a:	681b      	ldr	r3, [r3, #0]
 800094c:	2200      	movs	r2, #0
 800094e:	605a      	str	r2, [r3, #4]
	idleTaskTCBptr->id = prvCurTaskIDNum;
 8000950:	4b0b      	ldr	r3, [pc, #44]	@ (8000980 <createIdleTask+0x4c>)
 8000952:	681b      	ldr	r3, [r3, #0]
 8000954:	4a0d      	ldr	r2, [pc, #52]	@ (800098c <createIdleTask+0x58>)
 8000956:	6812      	ldr	r2, [r2, #0]
 8000958:	609a      	str	r2, [r3, #8]
	idleTaskNodePtr->taskTCB = idleTaskTCBptr;
 800095a:	4b0d      	ldr	r3, [pc, #52]	@ (8000990 <createIdleTask+0x5c>)
 800095c:	681b      	ldr	r3, [r3, #0]
 800095e:	4a08      	ldr	r2, [pc, #32]	@ (8000980 <createIdleTask+0x4c>)
 8000960:	6812      	ldr	r2, [r2, #0]
 8000962:	601a      	str	r2, [r3, #0]
	idleTaskNodePtr->next = NULL;
 8000964:	4b0a      	ldr	r3, [pc, #40]	@ (8000990 <createIdleTask+0x5c>)
 8000966:	681b      	ldr	r3, [r3, #0]
 8000968:	2200      	movs	r2, #0
 800096a:	605a      	str	r2, [r3, #4]
	prvCurTaskIDNum++;
 800096c:	4b07      	ldr	r3, [pc, #28]	@ (800098c <createIdleTask+0x58>)
 800096e:	681b      	ldr	r3, [r3, #0]
 8000970:	3301      	adds	r3, #1
 8000972:	4a06      	ldr	r2, [pc, #24]	@ (800098c <createIdleTask+0x58>)
 8000974:	6013      	str	r3, [r2, #0]

	return idleTaskNodePtr;
 8000976:	4b06      	ldr	r3, [pc, #24]	@ (8000990 <createIdleTask+0x5c>)
 8000978:	681b      	ldr	r3, [r3, #0]
}
 800097a:	4618      	mov	r0, r3
 800097c:	bd98      	pop	{r3, r4, r7, pc}
 800097e:	bf00      	nop
 8000980:	20000000 	.word	0x20000000
 8000984:	08000995 	.word	0x08000995
 8000988:	20000470 	.word	0x20000470
 800098c:	20000464 	.word	0x20000464
 8000990:	20000004 	.word	0x20000004

08000994 <idleTask>:

static void idleTask()
{
 8000994:	b480      	push	{r7}
 8000996:	af00      	add	r7, sp, #0
	for (;;)
	{
		__asm volatile("wfi");
 8000998:	bf30      	wfi
 800099a:	e7fd      	b.n	8000998 <idleTask+0x4>

0800099c <Reset_Handler>:

  .section .text.Reset_Handler
  .weak Reset_Handler
  .type Reset_Handler, %function
Reset_Handler:
  ldr   r0, =_estack
 800099c:	480d      	ldr	r0, [pc, #52]	@ (80009d4 <LoopForever+0x2>)
  mov   sp, r0          /* set stack pointer */
 800099e:	4685      	mov	sp, r0
/* Call the clock system initialization function.*/
  bl  SystemInit
 80009a0:	f3af 8000 	nop.w

/* Copy the data segment initializers from flash to SRAM */
  ldr r0, =_sdata
 80009a4:	480c      	ldr	r0, [pc, #48]	@ (80009d8 <LoopForever+0x6>)
  ldr r1, =_edata
 80009a6:	490d      	ldr	r1, [pc, #52]	@ (80009dc <LoopForever+0xa>)
  ldr r2, =_sidata
 80009a8:	4a0d      	ldr	r2, [pc, #52]	@ (80009e0 <LoopForever+0xe>)
  movs r3, #0
 80009aa:	2300      	movs	r3, #0
  b LoopCopyDataInit
 80009ac:	e002      	b.n	80009b4 <LoopCopyDataInit>

080009ae <CopyDataInit>:

CopyDataInit:
  ldr r4, [r2, r3]
 80009ae:	58d4      	ldr	r4, [r2, r3]
  str r4, [r0, r3]
 80009b0:	50c4      	str	r4, [r0, r3]
  adds r3, r3, #4
 80009b2:	3304      	adds	r3, #4

080009b4 <LoopCopyDataInit>:

LoopCopyDataInit:
  adds r4, r0, r3
 80009b4:	18c4      	adds	r4, r0, r3
  cmp r4, r1
 80009b6:	428c      	cmp	r4, r1
  bcc CopyDataInit
 80009b8:	d3f9      	bcc.n	80009ae <CopyDataInit>

/* Zero fill the bss segment. */
  ldr r2, =_sbss
 80009ba:	4a0a      	ldr	r2, [pc, #40]	@ (80009e4 <LoopForever+0x12>)
  ldr r4, =_ebss
 80009bc:	4c0a      	ldr	r4, [pc, #40]	@ (80009e8 <LoopForever+0x16>)
  movs r3, #0
 80009be:	2300      	movs	r3, #0
  b LoopFillZerobss
 80009c0:	e001      	b.n	80009c6 <LoopFillZerobss>

080009c2 <FillZerobss>:

FillZerobss:
  str  r3, [r2]
 80009c2:	6013      	str	r3, [r2, #0]
  adds r2, r2, #4
 80009c4:	3204      	adds	r2, #4

080009c6 <LoopFillZerobss>:

LoopFillZerobss:
  cmp r2, r4
 80009c6:	42a2      	cmp	r2, r4
  bcc FillZerobss
 80009c8:	d3fb      	bcc.n	80009c2 <FillZerobss>

/* Call static constructors */
  bl __libc_init_array
 80009ca:	f000 f811 	bl	80009f0 <__libc_init_array>
/* Call the application's entry point.*/
  bl main
 80009ce:	f7ff fd0f 	bl	80003f0 <main>

080009d2 <LoopForever>:

LoopForever:
  b LoopForever
 80009d2:	e7fe      	b.n	80009d2 <LoopForever>
  ldr   r0, =_estack
 80009d4:	20020000 	.word	0x20020000
  ldr r0, =_sdata
 80009d8:	20000000 	.word	0x20000000
  ldr r1, =_edata
 80009dc:	20000008 	.word	0x20000008
  ldr r2, =_sidata
 80009e0:	08000a58 	.word	0x08000a58
  ldr r2, =_sbss
 80009e4:	20000008 	.word	0x20000008
  ldr r4, =_ebss
 80009e8:	2000068c 	.word	0x2000068c

080009ec <ADC_IRQHandler>:
 * @retval : None
*/
  .section .text.Default_Handler,"ax",%progbits
Default_Handler:
Infinite_Loop:
  b Infinite_Loop
 80009ec:	e7fe      	b.n	80009ec <ADC_IRQHandler>
	...

080009f0 <__libc_init_array>:
 80009f0:	b570      	push	{r4, r5, r6, lr}
 80009f2:	4d0d      	ldr	r5, [pc, #52]	@ (8000a28 <__libc_init_array+0x38>)
 80009f4:	4c0d      	ldr	r4, [pc, #52]	@ (8000a2c <__libc_init_array+0x3c>)
 80009f6:	1b64      	subs	r4, r4, r5
 80009f8:	10a4      	asrs	r4, r4, #2
 80009fa:	2600      	movs	r6, #0
 80009fc:	42a6      	cmp	r6, r4
 80009fe:	d109      	bne.n	8000a14 <__libc_init_array+0x24>
 8000a00:	4d0b      	ldr	r5, [pc, #44]	@ (8000a30 <__libc_init_array+0x40>)
 8000a02:	4c0c      	ldr	r4, [pc, #48]	@ (8000a34 <__libc_init_array+0x44>)
 8000a04:	f000 f818 	bl	8000a38 <_init>
 8000a08:	1b64      	subs	r4, r4, r5
 8000a0a:	10a4      	asrs	r4, r4, #2
 8000a0c:	2600      	movs	r6, #0
 8000a0e:	42a6      	cmp	r6, r4
 8000a10:	d105      	bne.n	8000a1e <__libc_init_array+0x2e>
 8000a12:	bd70      	pop	{r4, r5, r6, pc}
 8000a14:	f855 3b04 	ldr.w	r3, [r5], #4
 8000a18:	4798      	blx	r3
 8000a1a:	3601      	adds	r6, #1
 8000a1c:	e7ee      	b.n	80009fc <__libc_init_array+0xc>
 8000a1e:	f855 3b04 	ldr.w	r3, [r5], #4
 8000a22:	4798      	blx	r3
 8000a24:	3601      	adds	r6, #1
 8000a26:	e7f2      	b.n	8000a0e <__libc_init_array+0x1e>
 8000a28:	08000a50 	.word	0x08000a50
 8000a2c:	08000a50 	.word	0x08000a50
 8000a30:	08000a50 	.word	0x08000a50
 8000a34:	08000a54 	.word	0x08000a54

08000a38 <_init>:
 8000a38:	b5f8      	push	{r3, r4, r5, r6, r7, lr}
 8000a3a:	bf00      	nop
 8000a3c:	bcf8      	pop	{r3, r4, r5, r6, r7}
 8000a3e:	bc08      	pop	{r3}
 8000a40:	469e      	mov	lr, r3
 8000a42:	4770      	bx	lr

08000a44 <_fini>:
 8000a44:	b5f8      	push	{r3, r4, r5, r6, r7, lr}
 8000a46:	bf00      	nop
 8000a48:	bcf8      	pop	{r3, r4, r5, r6, r7}
 8000a4a:	bc08      	pop	{r3}
 8000a4c:	469e      	mov	lr, r3
 8000a4e:	4770      	bx	lr
